; Function Attrs: nounwind uwtable
define noalias noundef ptr @Patt_ManOutputErrorCoverage(ptr noundef readonly captures(none) %0, i32 noundef %1) local_unnamed_addr #0 {
  %3 = tail call noalias dereferenceable_or_null(16) ptr @malloc(i64 noundef 16) #26
  %4 = add i32 %1, -1
  %or.cond.i = icmp ult i32 %4, 15
  %spec.store.select.i = select i1 %or.cond.i, i32 16, i32 %1
  %5 = getelementptr inbounds nuw i8, ptr %3, i64 4
  store i32 0, ptr %5, align 4, !tbaa !30
  store i32 %spec.store.select.i, ptr %3, align 8, !tbaa !33
  %.not.i = icmp eq i32 %spec.store.select.i, 0
  br i1 %.not.i, label %Vec_IntAlloc.exit, label %6

6:                                                ; preds = %2
  %7 = sext i32 %spec.store.select.i to i64
  %8 = shl nsw i64 %7, 2
  %9 = tail call noalias ptr @malloc(i64 noundef %8) #26
  br label %Vec_IntAlloc.exit

Vec_IntAlloc.exit:                                ; preds = %2, %6
  %10 = phi ptr [ %9, %6 ], [ null, %2 ]
  %11 = getelementptr inbounds nuw i8, ptr %3, i64 8
  store ptr %10, ptr %11, align 8, !tbaa !32
  %12 = icmp sgt i32 %1, 0
  br i1 %12, label %.lr.ph, label %._crit_edge

.lr.ph:                                           ; preds = %Vec_IntAlloc.exit
  %13 = getelementptr i8, ptr %0, i64 4
  %.val11 = load i32, ptr %13, align 4, !tbaa !138
  %14 = sdiv i32 %.val11, %1
  %15 = getelementptr i8, ptr %0, i64 8
  %16 = icmp sgt i32 %14, 0
  %wide.trip.count.i = zext i32 %14 to i64
  br i1 %16, label %.lr.ph.preheader.i.us.preheader, label %Abc_TtCountOnesVec.exit

.lr.ph.preheader.i.us.preheader:                  ; preds = %.lr.ph
  %wide.trip.count = zext nneg i32 %1 to i64
  br label %.lr.ph.preheader.i.us

.lr.ph.preheader.i.us:                            ; preds = %.lr.ph.preheader.i.us.preheader, %Vec_IntPush.exit.us
  %17 = phi ptr [ %10, %.lr.ph.preheader.i.us.preheader ], [ %.pre.i.us19, %Vec_IntPush.exit.us ]
  %indvars.iv = phi i64 [ 0, %.lr.ph.preheader.i.us.preheader ], [ %indvars.iv.next, %Vec_IntPush.exit.us ]
  %18 = mul nuw nsw i64 %indvars.iv, %wide.trip.count.i
  %.val.us = load ptr, ptr %15, align 8, !tbaa !136
  %19 = getelementptr inbounds nuw i64, ptr %.val.us, i64 %18
  br label %.lr.ph.i.us

.lr.ph.i.us:                                      ; preds = %Abc_TtCountOnes2.exit.i.us, %.lr.ph.preheader.i.us
  %indvars.iv.i.us = phi i64 [ 0, %.lr.ph.preheader.i.us ], [ %indvars.iv.next.i.us, %Abc_TtCountOnes2.exit.i.us ]
  %.08.i.us = phi i32 [ 0, %.lr.ph.preheader.i.us ], [ %42, %Abc_TtCountOnes2.exit.i.us ]
  %20 = getelementptr inbounds nuw i64, ptr %19, i64 %indvars.iv.i.us
  %21 = load i64, ptr %20, align 8, !tbaa !150
  %.not.i.i.us = icmp eq i64 %21, 0
  br i1 %.not.i.i.us, label %Abc_TtCountOnes2.exit.i.us, label %22

22:                                               ; preds = %.lr.ph.i.us
  %23 = lshr i64 %21, 1
  %24 = and i64 %23, 6148914691236517205
  %25 = sub i64 %21, %24
  %26 = and i64 %25, 3689348814741910323
  %27 = lshr i64 %25, 2
  %28 = and i64 %27, 3689348814741910323
  %29 = add nuw nsw i64 %28, %26
  %30 = lshr i64 %29, 4
  %31 = add nuw nsw i64 %30, %29
  %32 = and i64 %31, 1085102592571150095
  %33 = lshr i64 %32, 8
  %34 = add nuw nsw i64 %33, %32
  %35 = lshr i64 %34, 16
  %36 = add nuw nsw i64 %35, %34
  %37 = lshr i64 %36, 32
  %38 = add nuw nsw i64 %37, %36
  %39 = trunc i64 %38 to i32
  %40 = and i32 %39, 255
  br label %Abc_TtCountOnes2.exit.i.us

Abc_TtCountOnes2.exit.i.us:                       ; preds = %22, %.lr.ph.i.us
  %41 = phi i32 [ %40, %22 ], [ 0, %.lr.ph.i.us ]
  %42 = add nuw nsw i32 %41, %.08.i.us
  %indvars.iv.next.i.us = add nuw nsw i64 %indvars.iv.i.us, 1
  %exitcond.not.i.us = icmp eq i64 %indvars.iv.next.i.us, %wide.trip.count.i
  br i1 %exitcond.not.i.us, label %Abc_TtCountOnesVec.exit.loopexit.us, label %.lr.ph.i.us, !llvm.loop !154

43:                                               ; preds = %Abc_TtCountOnesVec.exit.loopexit.us
  %44 = icmp slt i32 %61, 16
  br i1 %44, label %53, label %45

45:                                               ; preds = %43
  %46 = shl nuw nsw i32 %61, 1
  %.not9.i9.i.us = icmp eq ptr %17, null
  %47 = zext nneg i32 %46 to i64
  %48 = shl nuw nsw i64 %47, 2
  br i1 %.not9.i9.i.us, label %51, label %49

49:                                               ; preds = %45
  %50 = tail call ptr @realloc(ptr noundef nonnull %17, i64 noundef %48) #28
  br label %Vec_IntPush.exit.us.sink.split

51:                                               ; preds = %45
  %52 = tail call noalias ptr @malloc(i64 noundef %48) #26
  br label %Vec_IntPush.exit.us.sink.split

53:                                               ; preds = %43
  %.not9.i.i.us = icmp eq ptr %17, null
  br i1 %.not9.i.i.us, label %56, label %54

54:                                               ; preds = %53
  %55 = tail call dereferenceable_or_null(64) ptr @realloc(ptr noundef nonnull %17, i64 noundef 64) #28
  br label %Vec_IntPush.exit.us.sink.split

56:                                               ; preds = %53
  %57 = tail call noalias dereferenceable_or_null(64) ptr @malloc(i64 noundef 64) #26
  br label %Vec_IntPush.exit.us.sink.split

Vec_IntPush.exit.us.sink.split:                   ; preds = %54, %56, %49, %51
  %.sink21 = phi ptr [ %50, %49 ], [ %52, %51 ], [ %55, %54 ], [ %57, %56 ]
  %.sink = phi i32 [ %46, %49 ], [ %46, %51 ], [ 16, %54 ], [ 16, %56 ]
  store ptr %.sink21, ptr %11, align 8, !tbaa !32
  store i32 %.sink, ptr %3, align 8, !tbaa !33
  br label %Vec_IntPush.exit.us

Vec_IntPush.exit.us:                              ; preds = %Vec_IntPush.exit.us.sink.split, %Abc_TtCountOnesVec.exit.loopexit.us
  %.pre.i.us19 = phi ptr [ %17, %Abc_TtCountOnesVec.exit.loopexit.us ], [ %.sink21, %Vec_IntPush.exit.us.sink.split ]
  %58 = add nsw i32 %61, 1
  store i32 %58, ptr %5, align 4, !tbaa !30
  %59 = sext i32 %61 to i64
  %60 = getelementptr inbounds i32, ptr %.pre.i.us19, i64 %59
  store i32 %42, ptr %60, align 4, !tbaa !35
  %indvars.iv.next = add nuw nsw i64 %indvars.iv, 1
  %exitcond15.not = icmp eq i64 %indvars.iv.next, %wide.trip.count
  br i1 %exitcond15.not, label %._crit_edge, label %.lr.ph.preheader.i.us, !llvm.loop !155

Abc_TtCountOnesVec.exit.loopexit.us:              ; preds = %Abc_TtCountOnes2.exit.i.us
  %61 = load i32, ptr %5, align 4, !tbaa !30
  %62 = load i32, ptr %3, align 8, !tbaa !33
  %63 = icmp eq i32 %61, %62
  br i1 %63, label %43, label %Vec_IntPush.exit.us

Abc_TtCountOnesVec.exit:                          ; preds = %.lr.ph, %Vec_IntPush.exit
  %64 = phi ptr [ %.pre.i16, %Vec_IntPush.exit ], [ %10, %.lr.ph ]
  %.012 = phi i32 [ %86, %Vec_IntPush.exit ], [ 0, %.lr.ph ]
  %65 = load i32, ptr %5, align 4, !tbaa !30
  %66 = load i32, ptr %3, align 8, !tbaa !33
  %67 = icmp eq i32 %65, %66
  br i1 %67, label %68, label %Vec_IntPush.exit

68:                                               ; preds = %Abc_TtCountOnesVec.exit
  %69 = icmp slt i32 %65, 16
  br i1 %69, label %70, label %75

70:                                               ; preds = %68
  %.not9.i.i = icmp eq ptr %64, null
  br i1 %.not9.i.i, label %73, label %71

71:                                               ; preds = %70
  %72 = tail call dereferenceable_or_null(64) ptr @realloc(ptr noundef nonnull %64, i64 noundef 64) #28
  br label %Vec_IntPush.exit.sink.split

73:                                               ; preds = %70
  %74 = tail call noalias dereferenceable_or_null(64) ptr @malloc(i64 noundef 64) #26
  br label %Vec_IntPush.exit.sink.split

75:                                               ; preds = %68
  %76 = shl nuw nsw i32 %65, 1
  %.not9.i9.i = icmp eq ptr %64, null
  %77 = zext nneg i32 %76 to i64
  %78 = shl nuw nsw i64 %77, 2
  br i1 %.not9.i9.i, label %81, label %79

79:                                               ; preds = %75
  %80 = tail call ptr @realloc(ptr noundef nonnull %64, i64 noundef %78) #28
  br label %Vec_IntPush.exit.sink.split

81:                                               ; preds = %75
  %82 = tail call noalias ptr @malloc(i64 noundef %78) #26
  br label %Vec_IntPush.exit.sink.split

Vec_IntPush.exit.sink.split:                      ; preds = %79, %81, %71, %73
  %.sink23 = phi ptr [ %72, %71 ], [ %74, %73 ], [ %80, %79 ], [ %82, %81 ]
  %.sink22 = phi i32 [ 16, %71 ], [ 16, %73 ], [ %76, %79 ], [ %76, %81 ]
  store ptr %.sink23, ptr %11, align 8, !tbaa !32
  store i32 %.sink22, ptr %3, align 8, !tbaa !33
  br label %Vec_IntPush.exit

Vec_IntPush.exit:                                 ; preds = %Vec_IntPush.exit.sink.split, %Abc_TtCountOnesVec.exit
  %.pre.i16 = phi ptr [ %64, %Abc_TtCountOnesVec.exit ], [ %.sink23, %Vec_IntPush.exit.sink.split ]
  %83 = add nsw i32 %65, 1
  store i32 %83, ptr %5, align 4, !tbaa !30
  %84 = sext i32 %65 to i64
  %85 = getelementptr inbounds i32, ptr %.pre.i16, i64 %84
  store i32 0, ptr %85, align 4, !tbaa !35
  %86 = add nuw nsw i32 %.012, 1
  %exitcond.not = icmp eq i32 %86, %1
  br i1 %exitcond.not, label %._crit_edge, label %Abc_TtCountOnesVec.exit, !llvm.loop !155

._crit_edge:                                      ; preds = %Vec_IntPush.exit, %Vec_IntPush.exit.us, %Vec_IntAlloc.exit
  ret ptr %3
}